target datalayout = "e-m:e-p270:32:32-p271:32:32-p272:64:64-i64:64-i128:128-f80:128-n8:16:32:64-S128"
target triple = "x86_64-pc-linux-gnu"

%class.G1Allocator = type { ptr, ptr, i8, i8, i64, ptr, ptr, %class.OldGCAllocRegion, ptr }
%class.OldGCAllocRegion = type { %class.G1GCAllocRegion.base, [7 x i8] }
%class.G1GCAllocRegion.base = type <{ %class.G1AllocRegion.base, [4 x i8], i64, ptr, i8 }>
%class.G1AllocRegion.base = type <{ ptr, ptr, i32, [4 x i8], ptr, i32 }>
%class.MutatorAllocRegion = type { %class.G1AllocRegion.base, i64, ptr }

; Function Attrs: mustprogress nounwind uwtable
define linkonce_odr hidden noundef ptr @_ZN11G1Allocator20mutator_alloc_regionEj(ptr noundef nonnull align 8 dereferenceable(120) %0, i32 noundef %1) #1 comdat align 2 {
  %3 = alloca ptr, align 8
  %4 = alloca i32, align 4
  store ptr %0, ptr %3, align 8
  store i32 %1, ptr %4, align 4
  %5 = load ptr, ptr %3, align 8
  %6 = getelementptr inbounds %class.G1Allocator, ptr %5, i32 0, i32 5
  %7 = load ptr, ptr %6, align 8
  %8 = load i32, ptr %4, align 4
  %9 = zext i32 %8 to i64
  %10 = getelementptr inbounds %class.MutatorAllocRegion, ptr %7, i64 %9
  ret ptr %10
}

; Function Attrs: mustprogress nounwind uwtable
define hidden noundef i64 @_ZN11G1Allocator21used_in_alloc_regionsEv(ptr noundef nonnull align 8 dereferenceable(120) %0) #1 align 2 {
  %2 = alloca ptr, align 8
  %3 = alloca i64, align 8
  %4 = alloca i32, align 4
  store ptr %0, ptr %2, align 8
  %5 = load ptr, ptr %2, align 8
  store i64 0, ptr %3, align 8
  store i32 0, ptr %4, align 4
  br label %6

6:                                                ; preds = %18, %1
  %7 = load i32, ptr %4, align 4
  %8 = zext i32 %7 to i64
  %9 = getelementptr inbounds %class.G1Allocator, ptr %5, i32 0, i32 4
  %10 = load i64, ptr %9, align 8
  %11 = icmp ult i64 %8, %10
  br i1 %11, label %12, label %21

12:                                               ; preds = %6
  %13 = load i32, ptr %4, align 4
  %14 = call noundef ptr @_ZN11G1Allocator20mutator_alloc_regionEj(ptr noundef nonnull align 8 dereferenceable(120) %5, i32 noundef %13)
  %15 = call noundef i64 @_ZN18MutatorAllocRegion21used_in_alloc_regionsEv(ptr noundef nonnull align 8 dereferenceable(56) %14)
  %16 = load i64, ptr %3, align 8
  %17 = add i64 %16, %15
  store i64 %17, ptr %3, align 8
  br label %18

18:                                               ; preds = %12
  %19 = load i32, ptr %4, align 4
  %20 = add i32 %19, 1
  store i32 %20, ptr %4, align 4
  br label %6, !llvm.loop !14

21:                                               ; preds = %6
  %22 = load i64, ptr %3, align 8
  ret i64 %22
}