; Function Attrs: mustprogress nounwind uwtable
define hidden noundef i64 @_ZN11G1Allocator21used_in_alloc_regionsEv(ptr nocapture noundef nonnull readonly align 8 dereferenceable(120) %0) local_unnamed_addr #0 align 2 {
  %2 = getelementptr inbounds i8, ptr %0, i64 24
  %3 = load i64, ptr %2, align 8
  %.not = icmp eq i64 %3, 0
  br i1 %.not, label %._crit_edge, label %.lr.ph

.lr.ph:                                           ; preds = %1
  %4 = getelementptr inbounds i8, ptr %0, i64 32
  br label %5

5:                                                ; preds = %.lr.ph, %5
  %6 = phi i64 [ 0, %.lr.ph ], [ %12, %5 ]
  %.07 = phi i32 [ 0, %.lr.ph ], [ %11, %5 ]
  %.056 = phi i64 [ 0, %.lr.ph ], [ %10, %5 ]
  %7 = load ptr, ptr %4, align 8
  %8 = getelementptr inbounds %class.MutatorAllocRegion, ptr %7, i64 %6
  %9 = tail call noundef i64 @_ZN18MutatorAllocRegion21used_in_alloc_regionsEv(ptr noundef nonnull align 8 dereferenceable(56) %8) #15
  %10 = add i64 %9, %.056
  %11 = add i32 %.07, 1
  %12 = zext i32 %11 to i64
  %13 = load i64, ptr %2, align 8
  %14 = icmp ugt i64 %13, %12
  br i1 %14, label %5, label %._crit_edge, !llvm.loop !12

._crit_edge:                                      ; preds = %5, %1
  %.05.lcssa = phi i64 [ 0, %1 ], [ %10, %5 ]
  ret i64 %.05.lcssa
}